; Function Attrs: nounwind uwtable
define dso_local range(i32 0, 2) i32 @archive_entry_update_hardlink_utf8(ptr noundef %0, ptr noundef %1) local_unnamed_addr #0 {
  %cond = icmp eq ptr %1, null
  %3 = getelementptr inbounds nuw i8, ptr %0, i64 192
  %4 = load i32, ptr %3, align 8, !tbaa !31
  br i1 %cond, label %5, label %7

5:                                                ; preds = %2
  %6 = and i32 %4, 2
  %.not = icmp eq i32 %6, 0
  br i1 %.not, label %9, label %21

7:                                                ; preds = %2
  %8 = or i32 %4, 1
  br label %11

9:                                                ; preds = %5
  %10 = and i32 %4, -4
  br label %11

11:                                               ; preds = %9, %7
  %.sink = phi i32 [ %10, %9 ], [ %8, %7 ]
  store i32 %.sink, ptr %3, align 8, !tbaa !31
  %12 = load ptr, ptr %0, align 8, !tbaa !25
  %13 = getelementptr inbounds nuw i8, ptr %0, i64 424
  %14 = tail call i32 @archive_mstring_update_utf8(ptr noundef %12, ptr noundef nonnull %13, ptr noundef %1) #21
  %15 = icmp eq i32 %14, 0
  br i1 %15, label %21, label %16

16:                                               ; preds = %11
  %17 = tail call ptr @__errno_location() #25
  %18 = load i32, ptr %17, align 4, !tbaa !28
  %19 = icmp eq i32 %18, 12
  br i1 %19, label %20, label %21

20:                                               ; preds = %16
  tail call void @__archive_errx(i32 noundef 1, ptr noundef nonnull @.str) #23
  unreachable

21:                                               ; preds = %16, %11, %5
  %.0 = phi i32 [ 0, %5 ], [ 1, %11 ], [ 0, %16 ]
  ret i32 %.0
}